; Function Attrs: mustprogress uwtable
define void @_ZN5Ipopt17RegisteredOptions16AddStringOption1ERKNSt7__cxx1112basic_stringIcSt11char_traitsIcESaIcEEES8_S8_S8_S8_S8_b(ptr noundef nonnull align 8 dereferenceable(128) %0, ptr noundef nonnull align 8 dereferenceable(32) %1, ptr noundef nonnull align 8 dereferenceable(32) %2, ptr noundef nonnull align 8 dereferenceable(32) %3, ptr noundef nonnull align 8 dereferenceable(32) %4, ptr noundef nonnull align 8 dereferenceable(32) %5, ptr noundef nonnull align 8 dereferenceable(32) %6, i1 noundef zeroext %7) unnamed_addr #3 align 2 personality ptr @__gxx_personality_v0 {
  %9 = alloca %"class.Ipopt::SmartPtr.21", align 8
  %10 = alloca i32, align 4
  call void @llvm.lifetime.start.p0(i64 8, ptr nonnull %9) #23
  %11 = tail call noalias noundef nonnull dereferenceable(224) ptr @_Znwm(i64 noundef 224) #27
  %12 = getelementptr inbounds nuw i8, ptr %0, i64 120
  %13 = getelementptr inbounds nuw i8, ptr %0, i64 112
  %14 = load i32, ptr %13, align 8, !tbaa !86
  %15 = add nsw i32 %14, 1
  store i32 %15, ptr %13, align 8, !tbaa !86
  invoke void @_ZN5Ipopt16RegisteredOptionC2ERKNSt7__cxx1112basic_stringIcSt11char_traitsIcESaIcEEES8_S8_RKNS_8SmartPtrINS_18RegisteredCategoryEEEib(ptr noundef nonnull align 8 dereferenceable(220) %11, ptr noundef nonnull align 8 dereferenceable(32) %1, ptr noundef nonnull align 8 dereferenceable(32) %2, ptr noundef nonnull align 8 dereferenceable(32) %6, ptr noundef nonnull align 8 dereferenceable(8) %12, i32 noundef %14, i1 noundef zeroext %7)
          to label %16 unwind label %40

16:                                               ; preds = %8
  %17 = getelementptr inbounds nuw i8, ptr %11, i64 8
  %18 = load i32, ptr %17, align 8, !tbaa !59
  %19 = add nsw i32 %18, 1
  store i32 %19, ptr %17, align 8, !tbaa !59
  store ptr %11, ptr %9, align 8, !tbaa !80
  call void @llvm.lifetime.start.p0(i64 4, ptr nonnull %10) #23
  store i32 2, ptr %10, align 4, !tbaa !96
  %20 = load ptr, ptr %11, align 8, !tbaa !32
  %21 = getelementptr inbounds nuw i8, ptr %20, i64 80
  %22 = load ptr, ptr %21, align 8
  invoke void %22(ptr noundef nonnull align 8 dereferenceable(220) %11, ptr noundef nonnull align 4 dereferenceable(4) %10)
          to label %23 unwind label %44

23:                                               ; preds = %16
  call void @llvm.lifetime.end.p0(i64 4, ptr nonnull %10) #23
  %24 = load ptr, ptr %11, align 8, !tbaa !32
  %25 = getelementptr inbounds nuw i8, ptr %24, i64 264
  %26 = load ptr, ptr %25, align 8
  invoke void %26(ptr noundef nonnull align 8 dereferenceable(220) %11, ptr noundef nonnull align 8 dereferenceable(32) %3)
          to label %27 unwind label %42

27:                                               ; preds = %23
  %28 = load ptr, ptr %11, align 8, !tbaa !32
  %29 = getelementptr inbounds nuw i8, ptr %28, i64 208
  %30 = load ptr, ptr %29, align 8
  invoke void %30(ptr noundef nonnull align 8 dereferenceable(220) %11, ptr noundef nonnull align 8 dereferenceable(32) %4, ptr noundef nonnull align 8 dereferenceable(32) %5)
          to label %31 unwind label %42

31:                                               ; preds = %27
  invoke void @_ZN5Ipopt17RegisteredOptions9AddOptionERKNS_8SmartPtrINS_16RegisteredOptionEEE(ptr noundef nonnull align 8 dereferenceable(128) %0, ptr noundef nonnull align 8 dereferenceable(8) %9)
          to label %32 unwind label %42

32:                                               ; preds = %31
  %33 = load i32, ptr %17, align 8, !tbaa !59
  %34 = add nsw i32 %33, -1
  store i32 %34, ptr %17, align 8, !tbaa !59
  %35 = icmp eq i32 %34, 0
  br i1 %35, label %36, label %_ZN5Ipopt8SmartPtrINS_16RegisteredOptionEED2Ev.exit

36:                                               ; preds = %32
  %37 = load ptr, ptr %11, align 8, !tbaa !32
  %38 = getelementptr inbounds nuw i8, ptr %37, i64 8
  %39 = load ptr, ptr %38, align 8
  call void %39(ptr noundef nonnull align 8 dereferenceable(220) %11) #23
  br label %_ZN5Ipopt8SmartPtrINS_16RegisteredOptionEED2Ev.exit

_ZN5Ipopt8SmartPtrINS_16RegisteredOptionEED2Ev.exit: ; preds = %32, %36
  call void @llvm.lifetime.end.p0(i64 8, ptr nonnull %9) #23
  ret void

40:                                               ; preds = %8
  %41 = landingpad { ptr, i32 }
          cleanup
  tail call void @_ZdlPvm(ptr noundef nonnull %11, i64 noundef 224) #24
  br label %_ZN5Ipopt8SmartPtrINS_16RegisteredOptionEED2Ev.exit14

42:                                               ; preds = %31, %27, %23
  %43 = landingpad { ptr, i32 }
          cleanup
  br label %46

44:                                               ; preds = %16
  %45 = landingpad { ptr, i32 }
          cleanup
  call void @llvm.lifetime.end.p0(i64 4, ptr nonnull %10) #23
  br label %46

46:                                               ; preds = %42, %44
  %.pn = phi { ptr, i32 } [ %43, %42 ], [ %45, %44 ]
  %47 = load i32, ptr %17, align 8, !tbaa !59
  %48 = add nsw i32 %47, -1
  store i32 %48, ptr %17, align 8, !tbaa !59
  %49 = icmp eq i32 %48, 0
  br i1 %49, label %50, label %_ZN5Ipopt8SmartPtrINS_16RegisteredOptionEED2Ev.exit14

50:                                               ; preds = %46
  %51 = load ptr, ptr %11, align 8, !tbaa !32
  %52 = getelementptr inbounds nuw i8, ptr %51, i64 8
  %53 = load ptr, ptr %52, align 8
  call void %53(ptr noundef nonnull align 8 dereferenceable(220) %11) #23
  br label %_ZN5Ipopt8SmartPtrINS_16RegisteredOptionEED2Ev.exit14

_ZN5Ipopt8SmartPtrINS_16RegisteredOptionEED2Ev.exit14: ; preds = %50, %46, %40
  %.pn.pn = phi { ptr, i32 } [ %41, %40 ], [ %.pn, %46 ], [ %.pn, %50 ]
  call void @llvm.lifetime.end.p0(i64 8, ptr nonnull %9) #23
  resume { ptr, i32 } %.pn.pn
}